target datalayout = "e-m:e-p270:32:32-p271:32:32-p272:64:64-i64:64-i128:128-f80:128-n8:16:32:64-S128"
target triple = "x86_64-pc-linux-gnu"

%struct.mz_zip_archive = type { i64, i64, i32, i32, i32, i32, i64, ptr, ptr, ptr, ptr, ptr, ptr, ptr, ptr, ptr }
%struct.mz_zip_internal_state_tag = type { %struct.mz_zip_array, %struct.mz_zip_array, %struct.mz_zip_array, i32, i32, i32, ptr, i64, ptr, i64, i64 }
%struct.mz_zip_array = type { ptr, i64, i64, i32 }

; Function Attrs: alwaysinline nounwind uwtable
define internal void @mz_zip_array_clear(ptr noundef %0, ptr noundef %1) #7 {
  %3 = alloca ptr, align 8
  %4 = alloca ptr, align 8
  store ptr %0, ptr %3, align 8
  store ptr %1, ptr %4, align 8
  %5 = load ptr, ptr %3, align 8
  %6 = getelementptr inbounds nuw %struct.mz_zip_archive, ptr %5, i32 0, i32 8
  %7 = load ptr, ptr %6, align 8
  %8 = load ptr, ptr %3, align 8
  %9 = getelementptr inbounds nuw %struct.mz_zip_archive, ptr %8, i32 0, i32 10
  %10 = load ptr, ptr %9, align 8
  %11 = load ptr, ptr %4, align 8
  %12 = getelementptr inbounds nuw %struct.mz_zip_array, ptr %11, i32 0, i32 0
  %13 = load ptr, ptr %12, align 8
  call void %7(ptr noundef %10, ptr noundef %13)
  %14 = load ptr, ptr %4, align 8
  call void @llvm.memset.p0.i64(ptr align 8 %14, i8 0, i64 32, i1 false)
  ret void
}

; Function Attrs: alwaysinline nounwind uwtable
define internal i32 @mz_zip_set_error(ptr noundef %0, i32 noundef %1) #7 {
  %3 = alloca ptr, align 8
  %4 = alloca i32, align 4
  store ptr %0, ptr %3, align 8
  store i32 %1, ptr %4, align 4
  %5 = load ptr, ptr %3, align 8
  %6 = icmp ne ptr %5, null
  br i1 %6, label %7, label %11

7:                                                ; preds = %2
  %8 = load i32, ptr %4, align 4
  %9 = load ptr, ptr %3, align 8
  %10 = getelementptr inbounds nuw %struct.mz_zip_archive, ptr %9, i32 0, i32 5
  store i32 %8, ptr %10, align 4
  br label %11

11:                                               ; preds = %7, %2
  ret i32 0
}

; Function Attrs: nounwind uwtable
define i32 @mz_zip_writer_init_from_reader_v2_noreopen(ptr noundef %0, ptr noundef %1, i32 noundef %2) #0 {
  %4 = alloca i32, align 4
  %5 = alloca ptr, align 8
  %6 = alloca ptr, align 8
  %7 = alloca i32, align 4
  %8 = alloca ptr, align 8
  %9 = alloca i32, align 4
  store ptr %0, ptr %5, align 8
  store ptr %1, ptr %6, align 8
  store i32 %2, ptr %7, align 4
  call void @llvm.lifetime.start.p0(i64 8, ptr %8) #13
  %10 = load ptr, ptr %5, align 8
  %11 = icmp ne ptr %10, null
  br i1 %11, label %12, label %22

12:                                               ; preds = %3
  %13 = load ptr, ptr %5, align 8
  %14 = getelementptr inbounds nuw %struct.mz_zip_archive, ptr %13, i32 0, i32 15
  %15 = load ptr, ptr %14, align 8
  %16 = icmp ne ptr %15, null
  br i1 %16, label %17, label %22

17:                                               ; preds = %12
  %18 = load ptr, ptr %5, align 8
  %19 = getelementptr inbounds nuw %struct.mz_zip_archive, ptr %18, i32 0, i32 3
  %20 = load i32, ptr %19, align 4
  %21 = icmp ne i32 %20, 1
  br i1 %21, label %22, label %25

22:                                               ; preds = %17, %12, %3
  %23 = load ptr, ptr %5, align 8
  %24 = call i32 @mz_zip_set_error(ptr noundef %23, i32 noundef 24)
  store i32 %24, ptr %4, align 4
  store i32 1, ptr %9, align 4
  br label %158

25:                                               ; preds = %17
  %26 = load i32, ptr %7, align 4
  %27 = and i32 %26, 16384
  %28 = icmp ne i32 %27, 0
  br i1 %28, label %29, label %40

29:                                               ; preds = %25
  %30 = load ptr, ptr %5, align 8
  %31 = getelementptr inbounds nuw %struct.mz_zip_archive, ptr %30, i32 0, i32 15
  %32 = load ptr, ptr %31, align 8
  %33 = getelementptr inbounds nuw %struct.mz_zip_internal_state_tag, ptr %32, i32 0, i32 4
  %34 = load i32, ptr %33, align 4
  %35 = icmp ne i32 %34, 0
  br i1 %35, label %39, label %36

36:                                               ; preds = %29
  %37 = load ptr, ptr %5, align 8
  %38 = call i32 @mz_zip_set_error(ptr noundef %37, i32 noundef 24)
  store i32 %38, ptr %4, align 4
  store i32 1, ptr %9, align 4
  br label %158

39:                                               ; preds = %29
  br label %40

40:                                               ; preds = %39, %25
  %41 = load ptr, ptr %5, align 8
  %42 = getelementptr inbounds nuw %struct.mz_zip_archive, ptr %41, i32 0, i32 15
  %43 = load ptr, ptr %42, align 8
  %44 = getelementptr inbounds nuw %struct.mz_zip_internal_state_tag, ptr %43, i32 0, i32 4
  %45 = load i32, ptr %44, align 4
  %46 = icmp ne i32 %45, 0
  br i1 %46, label %47, label %56

47:                                               ; preds = %40
  %48 = load ptr, ptr %5, align 8
  %49 = getelementptr inbounds nuw %struct.mz_zip_archive, ptr %48, i32 0, i32 2
  %50 = load i32, ptr %49, align 8
  %51 = icmp eq i32 %50, -1
  br i1 %51, label %52, label %55

52:                                               ; preds = %47
  %53 = load ptr, ptr %5, align 8
  %54 = call i32 @mz_zip_set_error(ptr noundef %53, i32 noundef 2)
  store i32 %54, ptr %4, align 4
  store i32 1, ptr %9, align 4
  br label %158

55:                                               ; preds = %47
  br label %75

56:                                               ; preds = %40
  %57 = load ptr, ptr %5, align 8
  %58 = getelementptr inbounds nuw %struct.mz_zip_archive, ptr %57, i32 0, i32 2
  %59 = load i32, ptr %58, align 8
  %60 = icmp eq i32 %59, 65535
  br i1 %60, label %61, label %64

61:                                               ; preds = %56
  %62 = load ptr, ptr %5, align 8
  %63 = call i32 @mz_zip_set_error(ptr noundef %62, i32 noundef 2)
  store i32 %63, ptr %4, align 4
  store i32 1, ptr %9, align 4
  br label %158

64:                                               ; preds = %56
  %65 = load ptr, ptr %5, align 8
  %66 = getelementptr inbounds nuw %struct.mz_zip_archive, ptr %65, i32 0, i32 0
  %67 = load i64, ptr %66, align 8
  %68 = add i64 %67, 46
  %69 = add i64 %68, 30
  %70 = icmp ugt i64 %69, 4294967295
  br i1 %70, label %71, label %74

71:                                               ; preds = %64
  %72 = load ptr, ptr %5, align 8
  %73 = call i32 @mz_zip_set_error(ptr noundef %72, i32 noundef 3)
  store i32 %73, ptr %4, align 4
  store i32 1, ptr %9, align 4
  br label %158

74:                                               ; preds = %64
  br label %75

75:                                               ; preds = %74, %55
  %76 = load ptr, ptr %5, align 8
  %77 = getelementptr inbounds nuw %struct.mz_zip_archive, ptr %76, i32 0, i32 15
  %78 = load ptr, ptr %77, align 8
  store ptr %78, ptr %8, align 8
  %79 = load ptr, ptr %8, align 8
  %80 = getelementptr inbounds nuw %struct.mz_zip_internal_state_tag, ptr %79, i32 0, i32 6
  %81 = load ptr, ptr %80, align 8
  %82 = icmp ne ptr %81, null
  br i1 %82, label %83, label %109

83:                                               ; preds = %75
  %84 = load ptr, ptr %5, align 8
  %85 = getelementptr inbounds nuw %struct.mz_zip_archive, ptr %84, i32 0, i32 14
  %86 = load ptr, ptr %85, align 8
  %87 = load ptr, ptr %5, align 8
  %88 = icmp ne ptr %86, %87
  br i1 %88, label %89, label %92

89:                                               ; preds = %83
  %90 = load ptr, ptr %5, align 8
  %91 = call i32 @mz_zip_set_error(ptr noundef %90, i32 noundef 24)
  store i32 %91, ptr %4, align 4
  store i32 1, ptr %9, align 4
  br label %158

92:                                               ; preds = %83
  %93 = load ptr, ptr %5, align 8
  %94 = getelementptr inbounds nuw %struct.mz_zip_archive, ptr %93, i32 0, i32 4
  %95 = load i32, ptr %94, align 8
  %96 = icmp eq i32 %95, 4
  br i1 %96, label %97, label %104

97:                                               ; preds = %92
  %98 = load ptr, ptr %6, align 8
  %99 = icmp ne ptr %98, null
  br i1 %99, label %103, label %100

100:                                              ; preds = %97
  %101 = load ptr, ptr %5, align 8
  %102 = call i32 @mz_zip_set_error(ptr noundef %101, i32 noundef 24)
  store i32 %102, ptr %4, align 4
  store i32 1, ptr %9, align 4
  br label %158

103:                                              ; preds = %97
  br label %104

104:                                              ; preds = %103, %92
  %105 = load ptr, ptr %5, align 8
  %106 = getelementptr inbounds nuw %struct.mz_zip_archive, ptr %105, i32 0, i32 12
  store ptr @mz_zip_file_write_func, ptr %106, align 8
  %107 = load ptr, ptr %5, align 8
  %108 = getelementptr inbounds nuw %struct.mz_zip_archive, ptr %107, i32 0, i32 13
  store ptr null, ptr %108, align 8
  br label %143

109:                                              ; preds = %75
  %110 = load ptr, ptr %8, align 8
  %111 = getelementptr inbounds nuw %struct.mz_zip_internal_state_tag, ptr %110, i32 0, i32 8
  %112 = load ptr, ptr %111, align 8
  %113 = icmp ne ptr %112, null
  br i1 %113, label %114, label %133

114:                                              ; preds = %109
  %115 = load ptr, ptr %5, align 8
  %116 = getelementptr inbounds nuw %struct.mz_zip_archive, ptr %115, i32 0, i32 14
  %117 = load ptr, ptr %116, align 8
  %118 = load ptr, ptr %5, align 8
  %119 = icmp ne ptr %117, %118
  br i1 %119, label %120, label %123

120:                                              ; preds = %114
  %121 = load ptr, ptr %5, align 8
  %122 = call i32 @mz_zip_set_error(ptr noundef %121, i32 noundef 24)
  store i32 %122, ptr %4, align 4
  store i32 1, ptr %9, align 4
  br label %158

123:                                              ; preds = %114
  %124 = load ptr, ptr %8, align 8
  %125 = getelementptr inbounds nuw %struct.mz_zip_internal_state_tag, ptr %124, i32 0, i32 9
  %126 = load i64, ptr %125, align 8
  %127 = load ptr, ptr %8, align 8
  %128 = getelementptr inbounds nuw %struct.mz_zip_internal_state_tag, ptr %127, i32 0, i32 10
  store i64 %126, ptr %128, align 8
  %129 = load ptr, ptr %5, align 8
  %130 = getelementptr inbounds nuw %struct.mz_zip_archive, ptr %129, i32 0, i32 12
  store ptr @mz_zip_heap_write_func, ptr %130, align 8
  %131 = load ptr, ptr %5, align 8
  %132 = getelementptr inbounds nuw %struct.mz_zip_archive, ptr %131, i32 0, i32 13
  store ptr null, ptr %132, align 8
  br label %142

133:                                              ; preds = %109
  %134 = load ptr, ptr %5, align 8
  %135 = getelementptr inbounds nuw %struct.mz_zip_archive, ptr %134, i32 0, i32 12
  %136 = load ptr, ptr %135, align 8
  %137 = icmp ne ptr %136, null
  br i1 %137, label %141, label %138

138:                                              ; preds = %133
  %139 = load ptr, ptr %5, align 8
  %140 = call i32 @mz_zip_set_error(ptr noundef %139, i32 noundef 24)
  store i32 %140, ptr %4, align 4
  store i32 1, ptr %9, align 4
  br label %158

141:                                              ; preds = %133
  br label %142

142:                                              ; preds = %141, %123
  br label %143

143:                                              ; preds = %142, %104
  %144 = load ptr, ptr %5, align 8
  %145 = getelementptr inbounds nuw %struct.mz_zip_archive, ptr %144, i32 0, i32 1
  %146 = load i64, ptr %145, align 8
  %147 = load ptr, ptr %5, align 8
  %148 = getelementptr inbounds nuw %struct.mz_zip_archive, ptr %147, i32 0, i32 0
  store i64 %146, ptr %148, align 8
  %149 = load ptr, ptr %5, align 8
  %150 = getelementptr inbounds nuw %struct.mz_zip_archive, ptr %149, i32 0, i32 1
  store i64 0, ptr %150, align 8
  %151 = load ptr, ptr %5, align 8
  %152 = load ptr, ptr %5, align 8
  %153 = getelementptr inbounds nuw %struct.mz_zip_archive, ptr %152, i32 0, i32 15
  %154 = load ptr, ptr %153, align 8
  %155 = getelementptr inbounds nuw %struct.mz_zip_internal_state_tag, ptr %154, i32 0, i32 2
  call void @mz_zip_array_clear(ptr noundef %151, ptr noundef %155)
  %156 = load ptr, ptr %5, align 8
  %157 = getelementptr inbounds nuw %struct.mz_zip_archive, ptr %156, i32 0, i32 3
  store i32 2, ptr %157, align 4
  store i32 1, ptr %4, align 4
  store i32 1, ptr %9, align 4
  br label %158

158:                                              ; preds = %143, %138, %120, %100, %89, %71, %61, %52, %36, %22
  call void @llvm.lifetime.end.p0(i64 8, ptr %8) #13
  %159 = load i32, ptr %4, align 4
  ret i32 %159
}