; Function Attrs: nounwind uwtable
define range(i32 0, 2) i32 @mz_zip_writer_init_from_reader_v2_noreopen(ptr noundef captures(address) %0, ptr noundef readnone captures(address_is_null) %1, i32 noundef %2) local_unnamed_addr #8 {
  %.not = icmp eq ptr %0, null
  br i1 %.not, label %mz_zip_set_error.exit68, label %4

4:                                                ; preds = %3
  %5 = getelementptr inbounds nuw i8, ptr %0, i64 104
  %6 = load ptr, ptr %5, align 8
  %.not43 = icmp eq ptr %6, null
  br i1 %.not43, label %10, label %7

7:                                                ; preds = %4
  %8 = getelementptr inbounds nuw i8, ptr %0, i64 20
  %9 = load i32, ptr %8, align 4
  %.not44 = icmp eq i32 %9, 1
  br i1 %.not44, label %12, label %10

10:                                               ; preds = %7, %4
  %11 = getelementptr inbounds nuw i8, ptr %0, i64 28
  store i32 24, ptr %11, align 4
  br label %mz_zip_set_error.exit68

12:                                               ; preds = %7
  %13 = and i32 %2, 16384
  %.not45 = icmp eq i32 %13, 0
  %.phi.trans.insert = getelementptr inbounds nuw i8, ptr %6, i64 100
  %.pre = load i32, ptr %.phi.trans.insert, align 4
  %14 = icmp eq i32 %.pre, 0
  br i1 %.not45, label %17, label %15

15:                                               ; preds = %12
  br i1 %14, label %mz_zip_set_error.exit66, label %.thread

mz_zip_set_error.exit66:                          ; preds = %15
  %16 = getelementptr inbounds nuw i8, ptr %0, i64 28
  store i32 24, ptr %16, align 4
  br label %mz_zip_set_error.exit68

17:                                               ; preds = %12
  br i1 %14, label %22, label %.thread

.thread:                                          ; preds = %15, %17
  %18 = getelementptr inbounds nuw i8, ptr %0, i64 16
  %19 = load i32, ptr %18, align 8
  %20 = icmp eq i32 %19, -1
  br i1 %20, label %mz_zip_set_error.exit64, label %32

mz_zip_set_error.exit64:                          ; preds = %.thread
  %21 = getelementptr inbounds nuw i8, ptr %0, i64 28
  store i32 2, ptr %21, align 4
  br label %mz_zip_set_error.exit68

22:                                               ; preds = %17
  %23 = getelementptr inbounds nuw i8, ptr %0, i64 16
  %24 = load i32, ptr %23, align 8
  %25 = icmp eq i32 %24, 65535
  br i1 %25, label %mz_zip_set_error.exit62, label %27

mz_zip_set_error.exit62:                          ; preds = %22
  %26 = getelementptr inbounds nuw i8, ptr %0, i64 28
  store i32 2, ptr %26, align 4
  br label %mz_zip_set_error.exit68

27:                                               ; preds = %22
  %28 = load i64, ptr %0, align 8
  %29 = add i64 %28, -4294967220
  %30 = icmp ult i64 %29, -4294967296
  br i1 %30, label %mz_zip_set_error.exit60, label %32

mz_zip_set_error.exit60:                          ; preds = %27
  %31 = getelementptr inbounds nuw i8, ptr %0, i64 28
  store i32 3, ptr %31, align 4
  br label %mz_zip_set_error.exit68

32:                                               ; preds = %27, %.thread
  %33 = getelementptr inbounds nuw i8, ptr %6, i64 112
  %34 = load ptr, ptr %33, align 8
  %.not48 = icmp eq ptr %34, null
  br i1 %.not48, label %48, label %35

35:                                               ; preds = %32
  %36 = getelementptr inbounds nuw i8, ptr %0, i64 96
  %37 = load ptr, ptr %36, align 8
  %.not52 = icmp eq ptr %37, %0
  br i1 %.not52, label %39, label %mz_zip_set_error.exit58

mz_zip_set_error.exit58:                          ; preds = %35
  %38 = getelementptr inbounds nuw i8, ptr %0, i64 28
  store i32 24, ptr %38, align 4
  br label %mz_zip_set_error.exit68

39:                                               ; preds = %35
  %40 = getelementptr inbounds nuw i8, ptr %0, i64 24
  %41 = load i32, ptr %40, align 8
  %42 = icmp ne i32 %41, 4
  %43 = icmp ne ptr %1, null
  %or.cond = or i1 %43, %42
  br i1 %or.cond, label %45, label %mz_zip_set_error.exit56

mz_zip_set_error.exit56:                          ; preds = %39
  %44 = getelementptr inbounds nuw i8, ptr %0, i64 28
  store i32 24, ptr %44, align 4
  br label %mz_zip_set_error.exit68

45:                                               ; preds = %39
  %46 = getelementptr inbounds nuw i8, ptr %0, i64 80
  store ptr @mz_zip_file_write_func, ptr %46, align 8
  %47 = getelementptr inbounds nuw i8, ptr %0, i64 88
  store ptr null, ptr %47, align 8
  br label %65

48:                                               ; preds = %32
  %49 = getelementptr inbounds nuw i8, ptr %6, i64 128
  %50 = load ptr, ptr %49, align 8
  %.not49 = icmp eq ptr %50, null
  br i1 %.not49, label %61, label %51

51:                                               ; preds = %48
  %52 = getelementptr inbounds nuw i8, ptr %0, i64 96
  %53 = load ptr, ptr %52, align 8
  %.not51 = icmp eq ptr %53, %0
  br i1 %.not51, label %55, label %mz_zip_set_error.exit54

mz_zip_set_error.exit54:                          ; preds = %51
  %54 = getelementptr inbounds nuw i8, ptr %0, i64 28
  store i32 24, ptr %54, align 4
  br label %mz_zip_set_error.exit68

55:                                               ; preds = %51
  %56 = getelementptr inbounds nuw i8, ptr %6, i64 136
  %57 = load i64, ptr %56, align 8
  %58 = getelementptr inbounds nuw i8, ptr %6, i64 144
  store i64 %57, ptr %58, align 8
  %59 = getelementptr inbounds nuw i8, ptr %0, i64 80
  store ptr @mz_zip_heap_write_func, ptr %59, align 8
  %60 = getelementptr inbounds nuw i8, ptr %0, i64 88
  store ptr null, ptr %60, align 8
  %.pre69 = load ptr, ptr %5, align 8
  br label %65

61:                                               ; preds = %48
  %62 = getelementptr inbounds nuw i8, ptr %0, i64 80
  %63 = load ptr, ptr %62, align 8
  %.not50 = icmp eq ptr %63, null
  br i1 %.not50, label %mz_zip_set_error.exit, label %65

mz_zip_set_error.exit:                            ; preds = %61
  %64 = getelementptr inbounds nuw i8, ptr %0, i64 28
  store i32 24, ptr %64, align 4
  br label %mz_zip_set_error.exit68

65:                                               ; preds = %55, %61, %45
  %66 = phi ptr [ %.pre69, %55 ], [ %6, %61 ], [ %6, %45 ]
  %67 = getelementptr inbounds nuw i8, ptr %0, i64 8
  %68 = load i64, ptr %67, align 8
  store i64 %68, ptr %0, align 8
  store i64 0, ptr %67, align 8
  %69 = getelementptr inbounds nuw i8, ptr %66, i64 64
  %70 = getelementptr inbounds nuw i8, ptr %0, i64 48
  %71 = load ptr, ptr %70, align 8
  %72 = getelementptr inbounds nuw i8, ptr %0, i64 64
  %73 = load ptr, ptr %72, align 8
  %74 = load ptr, ptr %69, align 8
  tail call void %71(ptr noundef %73, ptr noundef %74) #34
  tail call void @llvm.memset.p0.i64(ptr noundef nonnull align 8 dereferenceable(32) %69, i8 0, i64 32, i1 false)
  store i32 2, ptr %8, align 4
  br label %mz_zip_set_error.exit68

mz_zip_set_error.exit68:                          ; preds = %10, %3, %65, %mz_zip_set_error.exit, %mz_zip_set_error.exit54, %mz_zip_set_error.exit56, %mz_zip_set_error.exit58, %mz_zip_set_error.exit60, %mz_zip_set_error.exit62, %mz_zip_set_error.exit64, %mz_zip_set_error.exit66
  %.0 = phi i32 [ 0, %mz_zip_set_error.exit64 ], [ 0, %mz_zip_set_error.exit58 ], [ 1, %65 ], [ 0, %mz_zip_set_error.exit56 ], [ 0, %mz_zip_set_error.exit54 ], [ 0, %mz_zip_set_error.exit ], [ 0, %mz_zip_set_error.exit62 ], [ 0, %mz_zip_set_error.exit60 ], [ 0, %mz_zip_set_error.exit66 ], [ 0, %3 ], [ 0, %10 ]
  ret i32 %.0
}